target datalayout = "e-m:e-p270:32:32-p271:32:32-p272:64:64-i64:64-i128:128-f80:128-n8:16:32:64-S128"
target triple = "x86_64-unknown-linux-gnu"

; Function Attrs: mustprogress nounwind uwtable
define noundef zeroext i1 @_ZN18OpenImageIO_v2_6_011wrap_mirrorERiii(ptr noundef nonnull align 4 dereferenceable(4) %coord, i32 noundef %origin, i32 noundef %width) #4 {
entry:
  %coord.addr = alloca ptr, align 8
  %origin.addr = alloca i32, align 4
  %width.addr = alloca i32, align 4
  %iter = alloca i32, align 4
  store ptr %coord, ptr %coord.addr, align 8
  store i32 %origin, ptr %origin.addr, align 4
  store i32 %width, ptr %width.addr, align 4
  %0 = load i32, ptr %origin.addr, align 4
  %1 = load ptr, ptr %coord.addr, align 8
  %2 = load i32, ptr %1, align 4
  %sub = sub nsw i32 %2, %0
  store i32 %sub, ptr %1, align 4
  %3 = load ptr, ptr %coord.addr, align 8
  %4 = load i32, ptr %3, align 4
  %cmp = icmp slt i32 %4, 0
  br i1 %cmp, label %if.then, label %if.end

if.then:                                          ; preds = %entry
  %5 = load ptr, ptr %coord.addr, align 8
  %6 = load i32, ptr %5, align 4
  %sub1 = sub nsw i32 0, %6
  %sub2 = sub nsw i32 %sub1, 1
  %7 = load ptr, ptr %coord.addr, align 8
  store i32 %sub2, ptr %7, align 4
  br label %if.end

if.end:                                           ; preds = %if.then, %entry
  %8 = load ptr, ptr %coord.addr, align 8
  %9 = load i32, ptr %8, align 4
  %10 = load i32, ptr %width.addr, align 4
  %div = sdiv i32 %9, %10
  store i32 %div, ptr %iter, align 4
  %11 = load i32, ptr %iter, align 4
  %12 = load i32, ptr %width.addr, align 4
  %mul = mul nsw i32 %11, %12
  %13 = load ptr, ptr %coord.addr, align 8
  %14 = load i32, ptr %13, align 4
  %sub3 = sub nsw i32 %14, %mul
  store i32 %sub3, ptr %13, align 4
  %15 = load i32, ptr %iter, align 4
  %and = and i32 %15, 1
  %tobool = icmp ne i32 %and, 0
  br i1 %tobool, label %if.then4, label %if.end7

if.then4:                                         ; preds = %if.end
  %16 = load i32, ptr %width.addr, align 4
  %sub5 = sub nsw i32 %16, 1
  %17 = load ptr, ptr %coord.addr, align 8
  %18 = load i32, ptr %17, align 4
  %sub6 = sub nsw i32 %sub5, %18
  %19 = load ptr, ptr %coord.addr, align 8
  store i32 %sub6, ptr %19, align 4
  br label %if.end7

if.end7:                                          ; preds = %if.then4, %if.end
  %20 = load i32, ptr %origin.addr, align 4
  %21 = load ptr, ptr %coord.addr, align 8
  %22 = load i32, ptr %21, align 4
  %add = add nsw i32 %22, %20
  store i32 %add, ptr %21, align 4
  ret i1 true
}