; Function Attrs: mustprogress nofree norecurse nosync nounwind willreturn memory(argmem: readwrite) uwtable
define noundef zeroext i1 @_ZN18OpenImageIO_v2_6_011wrap_mirrorERiii(ptr nocapture noundef nonnull align 4 dereferenceable(4) %coord, i32 noundef %origin, i32 noundef %width) local_unnamed_addr #20 {
entry:
  %0 = load i32, ptr %coord, align 4
  %sub = sub nsw i32 %0, %origin
  %sub.lobit = ashr i32 %sub, 31
  %spec.select = xor i32 %sub.lobit, %sub
  %div = sdiv i32 %spec.select, %width
  %mul = mul nsw i32 %div, %width
  %sub3.recomposed = srem i32 %spec.select, %width
  %and = and i32 %div, 1
  %tobool.not = icmp eq i32 %and, 0
  %1 = xor i32 %sub3.recomposed, -1
  %sub6 = add i32 %1, %width
  %storemerge13 = select i1 %tobool.not, i32 %sub3.recomposed, i32 %sub6
  %add = add nsw i32 %storemerge13, %origin
  store i32 %add, ptr %coord, align 4
  ret i1 true
}